; Function Attrs: nounwind uwtable
define internal void @cast_expand_to_vec(ptr noundef %0, ptr noundef %1, ptr noundef %2) #0 {
  %4 = tail call ptr @type_get_indexed_type(ptr noundef %2) #10
  %5 = load ptr, ptr %1, align 8
  %.not = icmp eq ptr %5, null
  br i1 %.not, label %15, label %6

6:                                                ; preds = %3
  %7 = load i32, ptr %5, align 8
  %8 = icmp eq i32 %7, 31
  br i1 %8, label %9, label %13

9:                                                ; preds = %6
  %10 = getelementptr inbounds i8, ptr %5, i64 8
  %11 = load ptr, ptr %10, align 8
  %12 = load i32, ptr %11, align 8
  br label %13

13:                                               ; preds = %9, %6
  %.012 = phi i32 [ %12, %9 ], [ %7, %6 ]
  %14 = icmp eq i32 %.012, 40
  br label %15

15:                                               ; preds = %3, %13
  %.0 = phi i1 [ %14, %13 ], [ false, %3 ]
  tail call void @cast_no_check(ptr noundef %0, ptr noundef nonnull %1, ptr noundef %4, i1 noundef zeroext %.0)
  %16 = tail call noundef ptr @vmem_alloc(ptr noundef nonnull @expr_arena, i64 noundef 56) #10
  tail call void @llvm.memcpy.p0.p0.i64(ptr noundef nonnull align 8 dereferenceable(56) %16, ptr noundef nonnull align 8 dereferenceable(56) %1, i64 56, i1 false)
  %17 = getelementptr inbounds i8, ptr %1, i64 16
  %18 = load i16, ptr %17, align 8
  %19 = and i16 %18, -256
  %20 = or disjoint i16 %19, 9
  store i16 %20, ptr %17, align 8
  %21 = getelementptr inbounds i8, ptr %1, i64 24
  store i8 40, ptr %21, align 8
  %22 = load ptr, ptr @expr_arena, align 8
  %23 = ptrtoint ptr %16 to i64
  %24 = ptrtoint ptr %22 to i64
  %25 = sub i64 %23, %24
  %26 = sdiv exact i64 %25, 56
  %27 = trunc i64 %26 to i32
  %28 = getelementptr inbounds i8, ptr %1, i64 28
  store i32 %27, ptr %28, align 4
  %29 = getelementptr inbounds i8, ptr %1, i64 32
  store i32 0, ptr %29, align 8
  store ptr %2, ptr %1, align 8
  ret void
}